target datalayout = "e-m:e-p270:32:32-p271:32:32-p272:64:64-i64:64-i128:128-f80:128-n8:16:32:64-S128"
target triple = "x86_64-pc-linux-gnu"

%struct.AVFormatContext = type { ptr, ptr, ptr, ptr, ptr, i32, i32, ptr, i32, ptr, i32, ptr, ptr, i64, i64, i64, i32, i32, i32, i64, i64, ptr, i32, i32, ptr, i32, i32, i32, i32, ptr, i64, i32, i32, %struct.AVIOInterruptCB, i32, i32, i32, i32, i64, i32, i32, i32, i32, i32, i32, i32, i32, i32, i32, i32, i32, i64, i32, i32, i32, i32, i32, ptr, ptr, ptr, ptr, i32, ptr, ptr, ptr, ptr, i32, ptr, ptr, i64, ptr, ptr, ptr, i64 }
%struct.AVIOInterruptCB = type { ptr, ptr }
%struct.DHAVContext = type { i32, i32, i32, i32, i32, i32, i32, i32, i32, i32, i32, i32, i32, i32, i64, i64, i32, i32 }

; Function Attrs: alwaysinline nounwind uwtable
define internal i64 @avio_tell(ptr noundef %0) #4 {
  %2 = alloca ptr, align 8
  store ptr %0, ptr %2, align 8, !tbaa !108
  %3 = load ptr, ptr %2, align 8, !tbaa !108
  %4 = call i64 @avio_seek(ptr noundef %3, i64 noundef 0, i32 noundef 1)
  ret i64 %4
}

; Function Attrs: nounwind uwtable
define internal i32 @read_chunk(ptr noundef %0) #0 {
  %2 = alloca i32, align 4
  %3 = alloca ptr, align 8
  %4 = alloca ptr, align 8
  %5 = alloca i32, align 4
  %6 = alloca i32, align 4
  %7 = alloca i64, align 8
  %8 = alloca i64, align 8
  %9 = alloca i64, align 8
  %10 = alloca i32, align 4
  store ptr %0, ptr %3, align 8, !tbaa !14
  call void @llvm.lifetime.start.p0(i64 8, ptr %4) #7
  %11 = load ptr, ptr %3, align 8, !tbaa !14
  %12 = getelementptr inbounds nuw %struct.AVFormatContext, ptr %11, i32 0, i32 3
  %13 = load ptr, ptr %12, align 8, !tbaa !16
  store ptr %13, ptr %4, align 8, !tbaa !31
  call void @llvm.lifetime.start.p0(i64 4, ptr %5) #7
  call void @llvm.lifetime.start.p0(i64 4, ptr %6) #7
  call void @llvm.lifetime.start.p0(i64 8, ptr %7) #7
  call void @llvm.lifetime.start.p0(i64 8, ptr %8) #7
  call void @llvm.lifetime.start.p0(i64 8, ptr %9) #7
  %14 = load ptr, ptr %3, align 8, !tbaa !14
  %15 = getelementptr inbounds nuw %struct.AVFormatContext, ptr %14, i32 0, i32 4
  %16 = load ptr, ptr %15, align 8, !tbaa !33
  %17 = call i32 @avio_feof(ptr noundef %16)
  %18 = icmp ne i32 %17, 0
  br i1 %18, label %19, label %20

19:                                               ; preds = %1
  store i32 -541478725, ptr %2, align 4
  store i32 1, ptr %10, align 4
  br label %165

20:                                               ; preds = %1
  br label %21

21:                                               ; preds = %54, %20
  %22 = load ptr, ptr %3, align 8, !tbaa !14
  %23 = getelementptr inbounds nuw %struct.AVFormatContext, ptr %22, i32 0, i32 4
  %24 = load ptr, ptr %23, align 8, !tbaa !33
  %25 = call i32 @avio_r8(ptr noundef %24)
  %26 = icmp ne i32 %25, 68
  br i1 %26, label %45, label %27

27:                                               ; preds = %21
  %28 = load ptr, ptr %3, align 8, !tbaa !14
  %29 = getelementptr inbounds nuw %struct.AVFormatContext, ptr %28, i32 0, i32 4
  %30 = load ptr, ptr %29, align 8, !tbaa !33
  %31 = call i32 @avio_r8(ptr noundef %30)
  %32 = icmp ne i32 %31, 72
  br i1 %32, label %45, label %33

33:                                               ; preds = %27
  %34 = load ptr, ptr %3, align 8, !tbaa !14
  %35 = getelementptr inbounds nuw %struct.AVFormatContext, ptr %34, i32 0, i32 4
  %36 = load ptr, ptr %35, align 8, !tbaa !33
  %37 = call i32 @avio_r8(ptr noundef %36)
  %38 = icmp ne i32 %37, 65
  br i1 %38, label %45, label %39

39:                                               ; preds = %33
  %40 = load ptr, ptr %3, align 8, !tbaa !14
  %41 = getelementptr inbounds nuw %struct.AVFormatContext, ptr %40, i32 0, i32 4
  %42 = load ptr, ptr %41, align 8, !tbaa !33
  %43 = call i32 @avio_r8(ptr noundef %42)
  %44 = icmp ne i32 %43, 86
  br label %45

45:                                               ; preds = %39, %33, %27, %21
  %46 = phi i1 [ true, %33 ], [ true, %27 ], [ true, %21 ], [ %44, %39 ]
  br i1 %46, label %47, label %55

47:                                               ; preds = %45
  %48 = load ptr, ptr %3, align 8, !tbaa !14
  %49 = getelementptr inbounds nuw %struct.AVFormatContext, ptr %48, i32 0, i32 4
  %50 = load ptr, ptr %49, align 8, !tbaa !33
  %51 = call i32 @avio_feof(ptr noundef %50)
  %52 = icmp ne i32 %51, 0
  br i1 %52, label %53, label %54

53:                                               ; preds = %47
  store i32 -541478725, ptr %2, align 4
  store i32 1, ptr %10, align 4
  br label %165

54:                                               ; preds = %47
  br label %21, !llvm.loop !111

55:                                               ; preds = %45
  %56 = load ptr, ptr %3, align 8, !tbaa !14
  %57 = getelementptr inbounds nuw %struct.AVFormatContext, ptr %56, i32 0, i32 4
  %58 = load ptr, ptr %57, align 8, !tbaa !33
  %59 = call i64 @avio_tell(ptr noundef %58)
  %60 = sub nsw i64 %59, 4
  store i64 %60, ptr %7, align 8, !tbaa !87
  %61 = load i64, ptr %7, align 8, !tbaa !87
  %62 = load ptr, ptr %4, align 8, !tbaa !31
  %63 = getelementptr inbounds nuw %struct.DHAVContext, ptr %62, i32 0, i32 14
  store i64 %61, ptr %63, align 8, !tbaa !35
  %64 = load ptr, ptr %3, align 8, !tbaa !14
  %65 = getelementptr inbounds nuw %struct.AVFormatContext, ptr %64, i32 0, i32 4
  %66 = load ptr, ptr %65, align 8, !tbaa !33
  %67 = call i32 @avio_r8(ptr noundef %66)
  %68 = load ptr, ptr %4, align 8, !tbaa !31
  %69 = getelementptr inbounds nuw %struct.DHAVContext, ptr %68, i32 0, i32 0
  store i32 %67, ptr %69, align 8, !tbaa !48
  %70 = load ptr, ptr %3, align 8, !tbaa !14
  %71 = getelementptr inbounds nuw %struct.AVFormatContext, ptr %70, i32 0, i32 4
  %72 = load ptr, ptr %71, align 8, !tbaa !33
  %73 = call i32 @avio_r8(ptr noundef %72)
  %74 = load ptr, ptr %4, align 8, !tbaa !31
  %75 = getelementptr inbounds nuw %struct.DHAVContext, ptr %74, i32 0, i32 1
  store i32 %73, ptr %75, align 4, !tbaa !112
  %76 = load ptr, ptr %3, align 8, !tbaa !14
  %77 = getelementptr inbounds nuw %struct.AVFormatContext, ptr %76, i32 0, i32 4
  %78 = load ptr, ptr %77, align 8, !tbaa !33
  %79 = call i32 @avio_r8(ptr noundef %78)
  %80 = load ptr, ptr %4, align 8, !tbaa !31
  %81 = getelementptr inbounds nuw %struct.DHAVContext, ptr %80, i32 0, i32 2
  store i32 %79, ptr %81, align 8, !tbaa !113
  %82 = load ptr, ptr %3, align 8, !tbaa !14
  %83 = getelementptr inbounds nuw %struct.AVFormatContext, ptr %82, i32 0, i32 4
  %84 = load ptr, ptr %83, align 8, !tbaa !33
  %85 = call i32 @avio_r8(ptr noundef %84)
  %86 = load ptr, ptr %4, align 8, !tbaa !31
  %87 = getelementptr inbounds nuw %struct.DHAVContext, ptr %86, i32 0, i32 3
  store i32 %85, ptr %87, align 4, !tbaa !114
  %88 = load ptr, ptr %3, align 8, !tbaa !14
  %89 = getelementptr inbounds nuw %struct.AVFormatContext, ptr %88, i32 0, i32 4
  %90 = load ptr, ptr %89, align 8, !tbaa !33
  %91 = call i32 @avio_rl32(ptr noundef %90)
  %92 = load ptr, ptr %4, align 8, !tbaa !31
  %93 = getelementptr inbounds nuw %struct.DHAVContext, ptr %92, i32 0, i32 4
  store i32 %91, ptr %93, align 8, !tbaa !115
  %94 = load ptr, ptr %3, align 8, !tbaa !14
  %95 = getelementptr inbounds nuw %struct.AVFormatContext, ptr %94, i32 0, i32 4
  %96 = load ptr, ptr %95, align 8, !tbaa !33
  %97 = call i32 @avio_rl32(ptr noundef %96)
  store i32 %97, ptr %5, align 4, !tbaa !34
  %98 = load ptr, ptr %3, align 8, !tbaa !14
  %99 = getelementptr inbounds nuw %struct.AVFormatContext, ptr %98, i32 0, i32 4
  %100 = load ptr, ptr %99, align 8, !tbaa !33
  %101 = call i32 @avio_rl32(ptr noundef %100)
  %102 = load ptr, ptr %4, align 8, !tbaa !31
  %103 = getelementptr inbounds nuw %struct.DHAVContext, ptr %102, i32 0, i32 5
  store i32 %101, ptr %103, align 4, !tbaa !109
  %104 = load i32, ptr %5, align 4, !tbaa !34
  %105 = icmp slt i32 %104, 24
  br i1 %105, label %106, label %107

106:                                              ; preds = %55
  store i32 -1094995529, ptr %2, align 4
  store i32 1, ptr %10, align 4
  br label %165

107:                                              ; preds = %55
  %108 = load ptr, ptr %4, align 8, !tbaa !31
  %109 = getelementptr inbounds nuw %struct.DHAVContext, ptr %108, i32 0, i32 0
  %110 = load i32, ptr %109, align 8, !tbaa !48
  %111 = icmp eq i32 %110, 241
  br i1 %111, label %112, label %128

112:                                              ; preds = %107
  %113 = load ptr, ptr %3, align 8, !tbaa !14
  %114 = getelementptr inbounds nuw %struct.AVFormatContext, ptr %113, i32 0, i32 4
  %115 = load ptr, ptr %114, align 8, !tbaa !33
  %116 = load i32, ptr %5, align 4, !tbaa !34
  %117 = sub nsw i32 %116, 20
  %118 = sext i32 %117 to i64
  %119 = call i64 @avio_skip(ptr noundef %115, i64 noundef %118)
  store i64 %119, ptr %9, align 8, !tbaa !87
  %120 = load i64, ptr %9, align 8, !tbaa !87
  %121 = icmp slt i64 %120, 0
  br i1 %121, label %122, label %124

122:                                              ; preds = %112
  %123 = load i64, ptr %9, align 8, !tbaa !87
  br label %125

124:                                              ; preds = %112
  br label %125

125:                                              ; preds = %124, %122
  %126 = phi i64 [ %123, %122 ], [ 0, %124 ]
  %127 = trunc i64 %126 to i32
  store i32 %127, ptr %2, align 4
  store i32 1, ptr %10, align 4
  br label %165

128:                                              ; preds = %107
  %129 = load ptr, ptr %3, align 8, !tbaa !14
  %130 = getelementptr inbounds nuw %struct.AVFormatContext, ptr %129, i32 0, i32 4
  %131 = load ptr, ptr %130, align 8, !tbaa !33
  %132 = call i32 @avio_rl16(ptr noundef %131)
  %133 = load ptr, ptr %4, align 8, !tbaa !31
  %134 = getelementptr inbounds nuw %struct.DHAVContext, ptr %133, i32 0, i32 6
  store i32 %132, ptr %134, align 8, !tbaa !116
  %135 = load ptr, ptr %3, align 8, !tbaa !14
  %136 = getelementptr inbounds nuw %struct.AVFormatContext, ptr %135, i32 0, i32 4
  %137 = load ptr, ptr %136, align 8, !tbaa !33
  %138 = call i32 @avio_r8(ptr noundef %137)
  store i32 %138, ptr %6, align 4, !tbaa !34
  %139 = load ptr, ptr %3, align 8, !tbaa !14
  %140 = getelementptr inbounds nuw %struct.AVFormatContext, ptr %139, i32 0, i32 4
  %141 = load ptr, ptr %140, align 8, !tbaa !33
  %142 = call i64 @avio_skip(ptr noundef %141, i64 noundef 1)
  %143 = load ptr, ptr %3, align 8, !tbaa !14
  %144 = load i32, ptr %6, align 4, !tbaa !34
  %145 = call i32 @parse_ext(ptr noundef %143, i32 noundef %144)
  %146 = sext i32 %145 to i64
  store i64 %146, ptr %9, align 8, !tbaa !87
  %147 = load i64, ptr %9, align 8, !tbaa !87
  %148 = icmp slt i64 %147, 0
  br i1 %148, label %149, label %152

149:                                              ; preds = %128
  %150 = load i64, ptr %9, align 8, !tbaa !87
  %151 = trunc i64 %150 to i32
  store i32 %151, ptr %2, align 4
  store i32 1, ptr %10, align 4
  br label %165

152:                                              ; preds = %128
  %153 = load ptr, ptr %3, align 8, !tbaa !14
  %154 = getelementptr inbounds nuw %struct.AVFormatContext, ptr %153, i32 0, i32 4
  %155 = load ptr, ptr %154, align 8, !tbaa !33
  %156 = call i64 @avio_tell(ptr noundef %155)
  store i64 %156, ptr %8, align 8, !tbaa !87
  %157 = load i32, ptr %5, align 4, !tbaa !34
  %158 = sub nsw i32 %157, 8
  %159 = sext i32 %158 to i64
  %160 = load i64, ptr %8, align 8, !tbaa !87
  %161 = load i64, ptr %7, align 8, !tbaa !87
  %162 = sub nsw i64 %160, %161
  %163 = sub nsw i64 %159, %162
  %164 = trunc i64 %163 to i32
  store i32 %164, ptr %2, align 4
  store i32 1, ptr %10, align 4
  br label %165

165:                                              ; preds = %152, %149, %125, %106, %53, %19
  call void @llvm.lifetime.end.p0(i64 8, ptr %9) #7
  call void @llvm.lifetime.end.p0(i64 8, ptr %8) #7
  call void @llvm.lifetime.end.p0(i64 8, ptr %7) #7
  call void @llvm.lifetime.end.p0(i64 4, ptr %6) #7
  call void @llvm.lifetime.end.p0(i64 4, ptr %5) #7
  call void @llvm.lifetime.end.p0(i64 8, ptr %4) #7
  %166 = load i32, ptr %2, align 4
  ret i32 %166
}