; Function Attrs: nounwind uwtable
define internal fastcc i32 @read_chunk(ptr noundef %0) unnamed_addr #1 {
  %2 = getelementptr inbounds nuw i8, ptr %0, i64 24
  %3 = load ptr, ptr %2, align 8, !tbaa !12
  %4 = getelementptr inbounds nuw i8, ptr %0, i64 32
  %5 = load ptr, ptr %4, align 8, !tbaa !27
  %6 = tail call i32 @avio_feof(ptr noundef %5) #7
  %.not = icmp eq i32 %6, 0
  br i1 %.not, label %.preheader, label %.loopexit

.preheader:                                       ; preds = %1, %.critedge
  %7 = load ptr, ptr %4, align 8, !tbaa !27
  %8 = tail call i32 @avio_r8(ptr noundef %7) #7
  %.not42 = icmp eq i32 %8, 68
  br i1 %.not42, label %9, label %.critedge

9:                                                ; preds = %.preheader
  %10 = load ptr, ptr %4, align 8, !tbaa !27
  %11 = tail call i32 @avio_r8(ptr noundef %10) #7
  %.not43 = icmp eq i32 %11, 72
  br i1 %.not43, label %12, label %.critedge

12:                                               ; preds = %9
  %13 = load ptr, ptr %4, align 8, !tbaa !27
  %14 = tail call i32 @avio_r8(ptr noundef %13) #7
  %.not44 = icmp eq i32 %14, 65
  br i1 %.not44, label %15, label %.critedge

15:                                               ; preds = %12
  %16 = load ptr, ptr %4, align 8, !tbaa !27
  %17 = tail call i32 @avio_r8(ptr noundef %16) #7
  %.not45 = icmp eq i32 %17, 86
  br i1 %.not45, label %20, label %.critedge

.critedge:                                        ; preds = %12, %9, %.preheader, %15
  %18 = load ptr, ptr %4, align 8, !tbaa !27
  %19 = tail call i32 @avio_feof(ptr noundef %18) #7
  %.not46 = icmp eq i32 %19, 0
  br i1 %.not46, label %.preheader, label %.loopexit, !llvm.loop !108

20:                                               ; preds = %15
  %21 = load ptr, ptr %4, align 8, !tbaa !27
  %22 = tail call i64 @avio_seek(ptr noundef %21, i64 noundef 0, i32 noundef 1) #7
  %23 = add nsw i64 %22, -4
  %24 = getelementptr inbounds nuw i8, ptr %3, i64 56
  store i64 %23, ptr %24, align 8, !tbaa !28
  %25 = load ptr, ptr %4, align 8, !tbaa !27
  %26 = tail call i32 @avio_r8(ptr noundef %25) #7
  store i32 %26, ptr %3, align 8, !tbaa !47
  %27 = load ptr, ptr %4, align 8, !tbaa !27
  %28 = tail call i32 @avio_r8(ptr noundef %27) #7
  %29 = getelementptr inbounds nuw i8, ptr %3, i64 4
  store i32 %28, ptr %29, align 4, !tbaa !109
  %30 = load ptr, ptr %4, align 8, !tbaa !27
  %31 = tail call i32 @avio_r8(ptr noundef %30) #7
  %32 = getelementptr inbounds nuw i8, ptr %3, i64 8
  store i32 %31, ptr %32, align 8, !tbaa !110
  %33 = load ptr, ptr %4, align 8, !tbaa !27
  %34 = tail call i32 @avio_r8(ptr noundef %33) #7
  %35 = getelementptr inbounds nuw i8, ptr %3, i64 12
  store i32 %34, ptr %35, align 4, !tbaa !111
  %36 = load ptr, ptr %4, align 8, !tbaa !27
  %37 = tail call i32 @avio_rl32(ptr noundef %36) #7
  %38 = getelementptr inbounds nuw i8, ptr %3, i64 16
  store i32 %37, ptr %38, align 8, !tbaa !86
  %39 = load ptr, ptr %4, align 8, !tbaa !27
  %40 = tail call i32 @avio_rl32(ptr noundef %39) #7
  %41 = load ptr, ptr %4, align 8, !tbaa !27
  %42 = tail call i32 @avio_rl32(ptr noundef %41) #7
  %43 = getelementptr inbounds nuw i8, ptr %3, i64 20
  store i32 %42, ptr %43, align 4, !tbaa !32
  %44 = icmp slt i32 %40, 24
  br i1 %44, label %.loopexit, label %45

45:                                               ; preds = %20
  %46 = load i32, ptr %3, align 8, !tbaa !47
  %47 = icmp eq i32 %46, 241
  %48 = load ptr, ptr %4, align 8, !tbaa !27
  br i1 %47, label %49, label %55

49:                                               ; preds = %45
  %50 = add nsw i32 %40, -20
  %51 = zext nneg i32 %50 to i64
  %52 = tail call i64 @avio_skip(ptr noundef %48, i64 noundef %51) #7
  %53 = tail call i64 @llvm.smin.i64(i64 %52, i64 0)
  %54 = trunc i64 %53 to i32
  br label %.loopexit

55:                                               ; preds = %45
  %56 = tail call i32 @avio_rl16(ptr noundef %48) #7
  %57 = getelementptr inbounds nuw i8, ptr %3, i64 24
  store i32 %56, ptr %57, align 8, !tbaa !84
  %58 = load ptr, ptr %4, align 8, !tbaa !27
  %59 = tail call i32 @avio_r8(ptr noundef %58) #7
  %60 = load ptr, ptr %4, align 8, !tbaa !27
  %61 = tail call i64 @avio_skip(ptr noundef %60, i64 noundef 1) #7
  %62 = tail call fastcc i32 @parse_ext(ptr noundef nonnull %0, i32 noundef %59)
  %63 = icmp slt i32 %62, 0
  br i1 %63, label %.loopexit, label %64

64:                                               ; preds = %55
  %65 = load ptr, ptr %4, align 8, !tbaa !27
  %66 = tail call i64 @avio_seek(ptr noundef %65, i64 noundef 0, i32 noundef 1) #7
  %67 = add nsw i32 %40, -8
  %.neg = sub i64 %23, %66
  %68 = trunc i64 %.neg to i32
  %69 = add i32 %67, %68
  br label %.loopexit

.loopexit:                                        ; preds = %.critedge, %55, %20, %1, %64, %49
  %.0 = phi i32 [ %54, %49 ], [ %69, %64 ], [ -541478725, %1 ], [ -1094995529, %20 ], [ %62, %55 ], [ -541478725, %.critedge ]
  ret i32 %.0
}